target datalayout = "e-m:e-p270:32:32-p271:32:32-p272:64:64-i64:64-i128:128-f80:128-n8:16:32:64-S128"
target triple = "x86_64-pc-linux-gnu"

%struct.Lexer = type { ptr, ptr, ptr, ptr, i32, i32, ptr, ptr, ptr, %struct.TokenData, %union.SourceSpan, i32, i32 }
%struct.TokenData = type { ptr, i64, %union.anon.86 }
%union.anon.86 = type { %struct.anon.89 }
%struct.anon.89 = type { %struct.Int128_, i8 }
%struct.Int128_ = type { i64, i64 }
%union.SourceSpan = type { i64 }
%struct.anon.0 = type { i16, i8, i8, i32 }
%struct.anon.87 = type { ptr, i64 }

@.str.89 = private unnamed_addr constant [116 x i8] c"Reached the end of the file looking for the end of the raw string that starts here. Did you forget a '`' somewhere?\00", align 1

; Function Attrs: nounwind uwtable
define internal i32 @check_row(i64 noundef %0, i32 noundef %1) #0 {
  %3 = alloca i64, align 8
  %4 = alloca i32, align 4
  store i64 %0, ptr %3, align 8
  store i32 %1, ptr %4, align 4
  %5 = load i64, ptr %3, align 8
  %6 = icmp sgt i64 %5, 255
  br i1 %6, label %7, label %8

7:                                                ; preds = %2
  br label %11

8:                                                ; preds = %2
  %9 = load i64, ptr %3, align 8
  %10 = trunc i64 %9 to i32
  br label %11

11:                                               ; preds = %8, %7
  %12 = phi i32 [ 0, %7 ], [ %10, %8 ]
  ret i32 %12
}

; Function Attrs: nounwind uwtable
define internal zeroext i16 @check_col(i64 noundef %0, i32 noundef %1) #0 {
  %3 = alloca i16, align 2
  %4 = alloca i64, align 8
  %5 = alloca i32, align 4
  store i64 %0, ptr %4, align 8
  store i32 %1, ptr %5, align 4
  %6 = load i64, ptr %4, align 8
  %7 = icmp sgt i64 %6, 255
  br i1 %7, label %8, label %9

8:                                                ; preds = %2
  store i16 0, ptr %3, align 2
  br label %12

9:                                                ; preds = %2
  %10 = load i64, ptr %4, align 8
  %11 = trunc i64 %10 to i16
  store i16 %11, ptr %3, align 2
  br label %12

12:                                               ; preds = %9, %8
  %13 = load i16, ptr %3, align 2
  ret i16 %13
}

; Function Attrs: nounwind uwtable
define internal void @set_generic_token(ptr noundef %0, i32 noundef %1) #0 {
  %3 = alloca ptr, align 8
  %4 = alloca i32, align 4
  %5 = alloca i32, align 4
  %6 = alloca i32, align 4
  %7 = alloca i32, align 4
  store ptr %0, ptr %3, align 8
  store i32 %1, ptr %4, align 4
  %8 = load i32, ptr %4, align 4
  %9 = load ptr, ptr %3, align 8
  %10 = getelementptr inbounds %struct.Lexer, ptr %9, i32 0, i32 11
  store i32 %8, ptr %10, align 8
  %11 = load ptr, ptr %3, align 8
  %12 = getelementptr inbounds %struct.Lexer, ptr %11, i32 0, i32 3
  %13 = load ptr, ptr %12, align 8
  %14 = load ptr, ptr %3, align 8
  %15 = getelementptr inbounds %struct.Lexer, ptr %14, i32 0, i32 2
  %16 = load ptr, ptr %15, align 8
  %17 = ptrtoint ptr %13 to i64
  %18 = ptrtoint ptr %16 to i64
  %19 = sub i64 %17, %18
  %20 = load ptr, ptr %3, align 8
  %21 = getelementptr inbounds %struct.Lexer, ptr %20, i32 0, i32 9
  %22 = getelementptr inbounds %struct.TokenData, ptr %21, i32 0, i32 1
  store i64 %19, ptr %22, align 8
  %23 = load ptr, ptr %3, align 8
  %24 = getelementptr inbounds %struct.Lexer, ptr %23, i32 0, i32 2
  %25 = load ptr, ptr %24, align 8
  %26 = load ptr, ptr %3, align 8
  %27 = getelementptr inbounds %struct.Lexer, ptr %26, i32 0, i32 9
  %28 = getelementptr inbounds %struct.TokenData, ptr %27, i32 0, i32 0
  store ptr %25, ptr %28, align 8
  %29 = load ptr, ptr %3, align 8
  %30 = getelementptr inbounds %struct.Lexer, ptr %29, i32 0, i32 5
  %31 = load i32, ptr %30, align 4
  store i32 %31, ptr %5, align 4
  %32 = load i32, ptr %5, align 4
  %33 = load ptr, ptr %3, align 8
  %34 = getelementptr inbounds %struct.Lexer, ptr %33, i32 0, i32 4
  %35 = load i32, ptr %34, align 8
  %36 = icmp eq i32 %32, %35
  br i1 %36, label %37, label %62

37:                                               ; preds = %2
  %38 = load ptr, ptr %3, align 8
  %39 = getelementptr inbounds %struct.Lexer, ptr %38, i32 0, i32 2
  %40 = load ptr, ptr %39, align 8
  %41 = load ptr, ptr %3, align 8
  %42 = getelementptr inbounds %struct.Lexer, ptr %41, i32 0, i32 6
  %43 = load ptr, ptr %42, align 8
  %44 = ptrtoint ptr %40 to i64
  %45 = ptrtoint ptr %43 to i64
  %46 = sub i64 %44, %45
  %47 = add nsw i64 %46, 1
  %48 = load i32, ptr %5, align 4
  %49 = call zeroext i16 @check_col(i64 noundef %47, i32 noundef %48)
  %50 = zext i16 %49 to i32
  store i32 %50, ptr %6, align 4
  %51 = load ptr, ptr %3, align 8
  %52 = getelementptr inbounds %struct.Lexer, ptr %51, i32 0, i32 3
  %53 = load ptr, ptr %52, align 8
  %54 = load ptr, ptr %3, align 8
  %55 = getelementptr inbounds %struct.Lexer, ptr %54, i32 0, i32 2
  %56 = load ptr, ptr %55, align 8
  %57 = ptrtoint ptr %53 to i64
  %58 = ptrtoint ptr %56 to i64
  %59 = sub i64 %57, %58
  %60 = load i32, ptr %5, align 4
  %61 = call i32 @check_row(i64 noundef %59, i32 noundef %60)
  store i32 %61, ptr %7, align 4
  br label %76

62:                                               ; preds = %2
  %63 = load ptr, ptr %3, align 8
  %64 = getelementptr inbounds %struct.Lexer, ptr %63, i32 0, i32 2
  %65 = load ptr, ptr %64, align 8
  %66 = load ptr, ptr %3, align 8
  %67 = getelementptr inbounds %struct.Lexer, ptr %66, i32 0, i32 7
  %68 = load ptr, ptr %67, align 8
  %69 = ptrtoint ptr %65 to i64
  %70 = ptrtoint ptr %68 to i64
  %71 = sub i64 %69, %70
  %72 = add nsw i64 %71, 1
  %73 = load i32, ptr %5, align 4
  %74 = call zeroext i16 @check_col(i64 noundef %72, i32 noundef %73)
  %75 = zext i16 %74 to i32
  store i32 %75, ptr %6, align 4
  store i32 1, ptr %7, align 4
  br label %76

76:                                               ; preds = %62, %37
  %77 = load i32, ptr %7, align 4
  %78 = trunc i32 %77 to i8
  %79 = load ptr, ptr %3, align 8
  %80 = getelementptr inbounds %struct.Lexer, ptr %79, i32 0, i32 10
  %81 = getelementptr inbounds %struct.anon.0, ptr %80, i32 0, i32 1
  store i8 %78, ptr %81, align 2
  %82 = load i32, ptr %6, align 4
  %83 = trunc i32 %82 to i8
  %84 = load ptr, ptr %3, align 8
  %85 = getelementptr inbounds %struct.Lexer, ptr %84, i32 0, i32 10
  %86 = getelementptr inbounds %struct.anon.0, ptr %85, i32 0, i32 2
  store i8 %83, ptr %86, align 1
  %87 = load i32, ptr %5, align 4
  %88 = load ptr, ptr %3, align 8
  %89 = getelementptr inbounds %struct.Lexer, ptr %88, i32 0, i32 10
  %90 = getelementptr inbounds %struct.anon.0, ptr %89, i32 0, i32 3
  store i32 %87, ptr %90, align 4
  ret void
}

; Function Attrs: nounwind uwtable
define internal zeroext i1 @return_token(ptr noundef %0, i32 noundef %1, ptr noundef %2) #0 {
  %4 = alloca ptr, align 8
  %5 = alloca i32, align 4
  %6 = alloca ptr, align 8
  store ptr %0, ptr %4, align 8
  store i32 %1, ptr %5, align 4
  store ptr %2, ptr %6, align 8
  %7 = load ptr, ptr %4, align 8
  %8 = load i32, ptr %5, align 4
  call void @set_generic_token(ptr noundef %7, i32 noundef %8)
  %9 = load ptr, ptr %6, align 8
  %10 = load ptr, ptr %4, align 8
  %11 = getelementptr inbounds %struct.Lexer, ptr %10, i32 0, i32 9
  %12 = getelementptr inbounds %struct.TokenData, ptr %11, i32 0, i32 2
  %13 = getelementptr inbounds %struct.anon.87, ptr %12, i32 0, i32 0
  store ptr %9, ptr %13, align 8
  ret i1 true
}

; Function Attrs: nounwind uwtable
define internal zeroext i1 @scan_raw_string(ptr noundef %0) #0 {
  %2 = alloca ptr, align 8
  %3 = alloca ptr, align 8
  %4 = alloca i1, align 1
  %5 = alloca ptr, align 8
  %6 = alloca i8, align 1
  %7 = alloca ptr, align 8
  %8 = alloca ptr, align 8
  %9 = alloca i64, align 8
  %10 = alloca ptr, align 8
  store ptr %0, ptr %5, align 8
  br label %11

11:                                               ; preds = %85, %1
  %12 = load ptr, ptr %5, align 8
  %13 = getelementptr inbounds %struct.Lexer, ptr %12, i32 0, i32 3
  %14 = load ptr, ptr %13, align 8
  %15 = load i8, ptr %14, align 1
  store i8 %15, ptr %6, align 1
  %16 = load ptr, ptr %5, align 8
  store ptr %16, ptr %2, align 8
  %17 = load ptr, ptr %2, align 8
  %18 = getelementptr inbounds %struct.Lexer, ptr %17, i32 0, i32 3
  %19 = load ptr, ptr %18, align 8
  %20 = load i8, ptr %19, align 1
  %21 = sext i8 %20 to i32
  %22 = icmp eq i32 %21, 10
  br i1 %22, label %23, label %34

23:                                               ; preds = %11
  %24 = load ptr, ptr %2, align 8
  %25 = getelementptr inbounds %struct.Lexer, ptr %24, i32 0, i32 3
  %26 = load ptr, ptr %25, align 8
  %27 = getelementptr inbounds i8, ptr %26, i64 1
  %28 = load ptr, ptr %2, align 8
  %29 = getelementptr inbounds %struct.Lexer, ptr %28, i32 0, i32 6
  store ptr %27, ptr %29, align 8
  %30 = load ptr, ptr %2, align 8
  %31 = getelementptr inbounds %struct.Lexer, ptr %30, i32 0, i32 4
  %32 = load i32, ptr %31, align 8
  %33 = add i32 %32, 1
  store i32 %33, ptr %31, align 8
  br label %34

34:                                               ; preds = %23, %11
  %35 = load ptr, ptr %2, align 8
  %36 = getelementptr inbounds %struct.Lexer, ptr %35, i32 0, i32 3
  %37 = load ptr, ptr %36, align 8
  %38 = getelementptr inbounds i8, ptr %37, i32 1
  store ptr %38, ptr %36, align 8
  %39 = load i8, ptr %6, align 1
  %40 = sext i8 %39 to i32
  %41 = icmp eq i32 %40, 96
  br i1 %41, label %42, label %50

42:                                               ; preds = %34
  %43 = load ptr, ptr %5, align 8
  %44 = getelementptr inbounds %struct.Lexer, ptr %43, i32 0, i32 3
  %45 = load ptr, ptr %44, align 8
  %46 = load i8, ptr %45, align 1
  %47 = sext i8 %46 to i32
  %48 = icmp ne i32 %47, 96
  br i1 %48, label %49, label %50

49:                                               ; preds = %42
  br label %86

50:                                               ; preds = %42, %34
  %51 = load i8, ptr %6, align 1
  %52 = sext i8 %51 to i32
  %53 = icmp eq i32 %52, 0
  br i1 %53, label %54, label %57

54:                                               ; preds = %50
  %55 = load ptr, ptr %5, align 8
  %56 = call zeroext i1 (ptr, ptr, ...) @add_error_token_at_start(ptr noundef %55, ptr noundef @.str.89)
  store i1 %56, ptr %4, align 1
  br label %141

57:                                               ; preds = %50
  %58 = load i8, ptr %6, align 1
  %59 = sext i8 %58 to i32
  %60 = icmp eq i32 %59, 96
  br i1 %60, label %61, label %85

61:                                               ; preds = %57
  %62 = load ptr, ptr %5, align 8
  store ptr %62, ptr %3, align 8
  %63 = load ptr, ptr %3, align 8
  %64 = getelementptr inbounds %struct.Lexer, ptr %63, i32 0, i32 3
  %65 = load ptr, ptr %64, align 8
  %66 = load i8, ptr %65, align 1
  %67 = sext i8 %66 to i32
  %68 = icmp eq i32 %67, 10
  br i1 %68, label %69, label %80

69:                                               ; preds = %61
  %70 = load ptr, ptr %3, align 8
  %71 = getelementptr inbounds %struct.Lexer, ptr %70, i32 0, i32 3
  %72 = load ptr, ptr %71, align 8
  %73 = getelementptr inbounds i8, ptr %72, i64 1
  %74 = load ptr, ptr %3, align 8
  %75 = getelementptr inbounds %struct.Lexer, ptr %74, i32 0, i32 6
  store ptr %73, ptr %75, align 8
  %76 = load ptr, ptr %3, align 8
  %77 = getelementptr inbounds %struct.Lexer, ptr %76, i32 0, i32 4
  %78 = load i32, ptr %77, align 8
  %79 = add i32 %78, 1
  store i32 %79, ptr %77, align 8
  br label %80

80:                                               ; preds = %69, %61
  %81 = load ptr, ptr %3, align 8
  %82 = getelementptr inbounds %struct.Lexer, ptr %81, i32 0, i32 3
  %83 = load ptr, ptr %82, align 8
  %84 = getelementptr inbounds i8, ptr %83, i32 1
  store ptr %84, ptr %82, align 8
  br label %85

85:                                               ; preds = %80, %57
  br label %11

86:                                               ; preds = %49
  %87 = load ptr, ptr %5, align 8
  %88 = getelementptr inbounds %struct.Lexer, ptr %87, i32 0, i32 2
  %89 = load ptr, ptr %88, align 8
  %90 = getelementptr inbounds i8, ptr %89, i64 1
  store ptr %90, ptr %7, align 8
  %91 = load ptr, ptr %5, align 8
  %92 = getelementptr inbounds %struct.Lexer, ptr %91, i32 0, i32 3
  %93 = load ptr, ptr %92, align 8
  %94 = getelementptr inbounds i8, ptr %93, i64 -1
  store ptr %94, ptr %8, align 8
  %95 = load ptr, ptr %8, align 8
  %96 = load ptr, ptr %7, align 8
  %97 = ptrtoint ptr %95 to i64
  %98 = ptrtoint ptr %96 to i64
  %99 = sub i64 %97, %98
  store i64 %99, ptr %9, align 8
  %100 = load i64, ptr %9, align 8
  %101 = add i64 %100, 1
  %102 = call ptr @calloc_string(i64 noundef %101)
  store ptr %102, ptr %10, align 8
  store i64 0, ptr %9, align 8
  br label %103

103:                                              ; preds = %123, %86
  %104 = load ptr, ptr %7, align 8
  %105 = load ptr, ptr %8, align 8
  %106 = icmp ult ptr %104, %105
  br i1 %106, label %107, label %129

107:                                              ; preds = %103
  %108 = load ptr, ptr %7, align 8
  %109 = getelementptr inbounds i8, ptr %108, i32 1
  store ptr %109, ptr %7, align 8
  %110 = load i8, ptr %108, align 1
  store i8 %110, ptr %6, align 1
  %111 = load i8, ptr %6, align 1
  %112 = sext i8 %111 to i32
  %113 = icmp eq i32 %112, 96
  br i1 %113, label %114, label %123

114:                                              ; preds = %107
  %115 = load ptr, ptr %7, align 8
  %116 = getelementptr inbounds i8, ptr %115, i64 0
  %117 = load i8, ptr %116, align 1
  %118 = sext i8 %117 to i32
  %119 = icmp eq i32 %118, 96
  br i1 %119, label %120, label %123

120:                                              ; preds = %114
  %121 = load ptr, ptr %7, align 8
  %122 = getelementptr inbounds i8, ptr %121, i32 1
  store ptr %122, ptr %7, align 8
  br label %123

123:                                              ; preds = %120, %114, %107
  %124 = load i8, ptr %6, align 1
  %125 = load ptr, ptr %10, align 8
  %126 = load i64, ptr %9, align 8
  %127 = add i64 %126, 1
  store i64 %127, ptr %9, align 8
  %128 = getelementptr inbounds i8, ptr %125, i64 %126
  store i8 %124, ptr %128, align 1
  br label %103, !llvm.loop !17

129:                                              ; preds = %103
  %130 = load ptr, ptr %10, align 8
  %131 = load i64, ptr %9, align 8
  %132 = getelementptr inbounds i8, ptr %130, i64 %131
  store i8 0, ptr %132, align 1
  %133 = load ptr, ptr %5, align 8
  %134 = load ptr, ptr %10, align 8
  %135 = call zeroext i1 @return_token(ptr noundef %133, i32 noundef 76, ptr noundef %134)
  %136 = load i64, ptr %9, align 8
  %137 = load ptr, ptr %5, align 8
  %138 = getelementptr inbounds %struct.Lexer, ptr %137, i32 0, i32 9
  %139 = getelementptr inbounds %struct.TokenData, ptr %138, i32 0, i32 2
  %140 = getelementptr inbounds %struct.anon.87, ptr %139, i32 0, i32 1
  store i64 %136, ptr %140, align 8
  store i1 true, ptr %4, align 1
  br label %141

141:                                              ; preds = %129, %54
  %142 = load i1, ptr %4, align 1
  ret i1 %142
}