; Function Attrs: nounwind uwtable
define internal fastcc noundef zeroext i1 @scan_raw_string(ptr nocapture noundef %0) unnamed_addr #0 {
  %2 = getelementptr inbounds i8, ptr %0, i64 24
  %.promoted = load ptr, ptr %2, align 8
  %3 = getelementptr inbounds i8, ptr %0, i64 40
  %4 = getelementptr inbounds i8, ptr %0, i64 32
  br label %.thread42

.thread42:                                        ; preds = %.thread42.backedge, %1
  %5 = phi ptr [ %.promoted, %1 ], [ %.be, %.thread42.backedge ]
  %6 = load i8, ptr %5, align 1
  %7 = icmp eq i8 %6, 10
  %8 = getelementptr inbounds i8, ptr %5, i64 1
  br i1 %7, label %13, label %9

9:                                                ; preds = %.thread42
  store ptr %8, ptr %2, align 8
  switch i8 %6, label %.thread42.backedge [
    i8 96, label %10
    i8 0, label %12
  ]

10:                                               ; preds = %9
  %11 = load i8, ptr %8, align 1
  %.not = icmp eq i8 %11, 96
  br i1 %.not, label %16, label %18

12:                                               ; preds = %9
  tail call void (ptr, ptr, ...) @add_error_token_at_start(ptr noundef nonnull %0, ptr noundef nonnull @.str.89)
  br label %75

13:                                               ; preds = %.thread42
  store ptr %8, ptr %3, align 8
  %14 = load i32, ptr %4, align 8
  %15 = add i32 %14, 1
  store i32 %15, ptr %4, align 8
  br label %.thread42.sink.split

16:                                               ; preds = %10
  %17 = getelementptr inbounds i8, ptr %5, i64 2
  br label %.thread42.sink.split

.thread42.sink.split:                             ; preds = %16, %13
  %.sink = phi ptr [ %8, %13 ], [ %17, %16 ]
  store ptr %.sink, ptr %2, align 8
  br label %.thread42.backedge

.thread42.backedge:                               ; preds = %.thread42.sink.split, %9
  %.be = phi ptr [ %8, %9 ], [ %.sink, %.thread42.sink.split ]
  br label %.thread42

18:                                               ; preds = %10
  %19 = getelementptr inbounds i8, ptr %0, i64 16
  %20 = load ptr, ptr %19, align 8
  %21 = getelementptr inbounds i8, ptr %20, i64 1
  %22 = ptrtoint ptr %5 to i64
  %23 = ptrtoint ptr %21 to i64
  %24 = add i64 %22, 1
  %25 = sub i64 %24, %23
  %26 = tail call ptr @calloc_string(i64 noundef %25) #10
  %27 = icmp ult ptr %21, %5
  br i1 %27, label %.lr.ph, label %._crit_edge

.lr.ph:                                           ; preds = %18, %35
  %.03851 = phi i64 [ %36, %35 ], [ 0, %18 ]
  %.03950 = phi ptr [ %.1, %35 ], [ %21, %18 ]
  %28 = getelementptr inbounds i8, ptr %.03950, i64 1
  %29 = load i8, ptr %.03950, align 1
  %30 = icmp eq i8 %29, 96
  br i1 %30, label %31, label %35

31:                                               ; preds = %.lr.ph
  %32 = load i8, ptr %28, align 1
  %33 = icmp eq i8 %32, 96
  %34 = getelementptr inbounds i8, ptr %.03950, i64 2
  %spec.select = select i1 %33, ptr %34, ptr %28
  br label %35

35:                                               ; preds = %31, %.lr.ph
  %.1 = phi ptr [ %28, %.lr.ph ], [ %spec.select, %31 ]
  %36 = add i64 %.03851, 1
  %37 = getelementptr inbounds i8, ptr %26, i64 %.03851
  store i8 %29, ptr %37, align 1
  %38 = icmp ult ptr %.1, %5
  br i1 %38, label %.lr.ph, label %._crit_edge, !llvm.loop !21

._crit_edge:                                      ; preds = %35, %18
  %.038.lcssa = phi i64 [ 0, %18 ], [ %36, %35 ]
  %39 = getelementptr inbounds i8, ptr %26, i64 %.038.lcssa
  store i8 0, ptr %39, align 1
  %40 = getelementptr inbounds i8, ptr %0, i64 112
  store i32 76, ptr %40, align 8
  %41 = load ptr, ptr %2, align 8
  %42 = load ptr, ptr %19, align 8
  %43 = ptrtoint ptr %41 to i64
  %44 = ptrtoint ptr %42 to i64
  %45 = sub i64 %43, %44
  %46 = getelementptr inbounds i8, ptr %0, i64 64
  %47 = getelementptr inbounds i8, ptr %0, i64 72
  store i64 %45, ptr %47, align 8
  store ptr %42, ptr %46, align 8
  %48 = getelementptr inbounds i8, ptr %0, i64 36
  %49 = load i32, ptr %48, align 4
  %50 = load i32, ptr %4, align 8
  %51 = icmp eq i32 %49, %50
  br i1 %51, label %52, label %62

52:                                               ; preds = %._crit_edge
  %53 = load ptr, ptr %3, align 8
  %54 = ptrtoint ptr %53 to i64
  %55 = sub i64 %44, %54
  %56 = icmp sgt i64 %55, 254
  %57 = trunc i64 %55 to i8
  %58 = add i8 %57, 1
  %.0.i.i.i = select i1 %56, i8 0, i8 %58
  %59 = icmp sgt i64 %45, 255
  %60 = trunc i64 %45 to i8
  %61 = select i1 %59, i8 0, i8 %60
  br label %return_token.exit

62:                                               ; preds = %._crit_edge
  %63 = getelementptr inbounds i8, ptr %0, i64 48
  %64 = load ptr, ptr %63, align 8
  %65 = ptrtoint ptr %64 to i64
  %66 = sub i64 %44, %65
  %67 = icmp sgt i64 %66, 254
  %68 = trunc i64 %66 to i8
  %69 = add i8 %68, 1
  %.0.i26.i.i = select i1 %67, i8 0, i8 %69
  br label %return_token.exit

return_token.exit:                                ; preds = %52, %62
  %.024.in.i.i = phi i8 [ %.0.i.i.i, %52 ], [ %.0.i26.i.i, %62 ]
  %.0.i.i = phi i8 [ %61, %52 ], [ 1, %62 ]
  %70 = getelementptr inbounds i8, ptr %0, i64 106
  store i8 %.0.i.i, ptr %70, align 2
  %71 = getelementptr inbounds i8, ptr %0, i64 107
  store i8 %.024.in.i.i, ptr %71, align 1
  %72 = getelementptr inbounds i8, ptr %0, i64 108
  store i32 %49, ptr %72, align 4
  %73 = getelementptr inbounds i8, ptr %0, i64 80
  store ptr %26, ptr %73, align 8
  %74 = getelementptr inbounds i8, ptr %0, i64 88
  store i64 %.038.lcssa, ptr %74, align 8
  br label %75

75:                                               ; preds = %return_token.exit, %12
  %.0 = phi i1 [ true, %return_token.exit ], [ false, %12 ]
  ret i1 %.0
}